target datalayout = "e-m:e-p270:32:32-p271:32:32-p272:64:64-i64:64-i128:128-f80:128-n8:16:32:64-S128"
target triple = "x86_64-pc-linux-gnu"

@g_assert_poison = external global ptr, align 8
@.str = private unnamed_addr constant [40 x i8] c"src/hotspot/share/c1/c1_Instruction.cpp\00", align 1

; Function Attrs: mustprogress nounwind uwtable
define hidden noundef i32 @_ZN11Instruction6negateENS_9ConditionE(i32 noundef %0) #1 align 2 {
  %2 = alloca i32, align 4
  %3 = alloca i32, align 4
  store i32 %0, ptr %3, align 4
  %4 = load i32, ptr %3, align 4
  switch i32 %4, label %13 [
    i32 0, label %5
    i32 1, label %6
    i32 2, label %7
    i32 3, label %8
    i32 4, label %9
    i32 5, label %10
    i32 6, label %11
    i32 7, label %12
  ]

5:                                                ; preds = %1
  store i32 1, ptr %2, align 4
  br label %17

6:                                                ; preds = %1
  store i32 0, ptr %2, align 4
  br label %17

7:                                                ; preds = %1
  store i32 5, ptr %2, align 4
  br label %17

8:                                                ; preds = %1
  store i32 4, ptr %2, align 4
  br label %17

9:                                                ; preds = %1
  store i32 3, ptr %2, align 4
  br label %17

10:                                               ; preds = %1
  store i32 2, ptr %2, align 4
  br label %17

11:                                               ; preds = %1
  br label %12

12:                                               ; preds = %11, %1
  br label %13

13:                                               ; preds = %12, %1
  br label %14

14:                                               ; preds = %13
  %15 = load ptr, ptr @g_assert_poison, align 8
  store i8 88, ptr %15, align 1
  call void @_Z28report_should_not_reach_herePKci(ptr noundef @.str, i32 noundef 74) #6
  unreachable

16:                                               ; No predecessors!
  store i32 0, ptr %2, align 4
  br label %17

17:                                               ; preds = %16, %10, %9, %8, %7, %6, %5
  %18 = load i32, ptr %2, align 4
  ret i32 %18
}