; Function Attrs: mustprogress nounwind uwtable
define hidden noundef range(i32 0, 6) i32 @_ZN11Instruction6negateENS_9ConditionE(i32 noundef %0) local_unnamed_addr #1 align 2 {
  %2 = icmp ult i32 %0, 6
  br i1 %2, label %switch.lookup, label %3

3:                                                ; preds = %1
  %4 = load ptr, ptr @g_assert_poison, align 8
  store i8 88, ptr %4, align 1
  tail call void @_Z28report_should_not_reach_herePKci(ptr noundef nonnull @.str, i32 noundef 74) #12
  unreachable

switch.lookup:                                    ; preds = %1
  %5 = zext nneg i32 %0 to i64
  %switch.gep = getelementptr inbounds [6 x i32], ptr @switch.table._ZN11Instruction6negateENS_9ConditionE, i64 0, i64 %5
  %switch.load = load i32, ptr %switch.gep, align 4
  ret i32 %switch.load
}